; Function Attrs: mustprogress uwtable
define hidden void @_ZN4cvc58internal24ElimWitnessNodeConverterC2ERNS0_3EnvE(ptr noundef nonnull align 8 dereferenceable(288) %0, ptr noundef nonnull align 1 %1) unnamed_addr #3 align 2 personality ptr @__gxx_personality_v0 {
  tail call void @_ZN4cvc58internal6EnvObjC2ERNS0_3EnvE(ptr noundef nonnull align 8 dereferenceable(16) %0, ptr noundef nonnull align 1 %1)
  store ptr getelementptr inbounds nuw inrange(-16, 32) (i8, ptr @_ZTVN4cvc58internal24ElimWitnessNodeConverterE, i64 16), ptr %0, align 8, !tbaa !3
  %3 = getelementptr inbounds nuw i8, ptr %0, i64 16
  store ptr getelementptr inbounds nuw inrange(-16, 64) (i8, ptr @_ZTVN4cvc58internal24ElimWitnessNodeConverterE, i64 64), ptr %3, align 8, !tbaa !3
  %4 = tail call noundef ptr @_ZNK4cvc58internal6EnvObj11nodeManagerEv(ptr noundef nonnull align 8 dereferenceable(16) %0)
  tail call void @_ZN4cvc58internal13NodeConverterC2EPNS0_11NodeManagerEb(ptr noundef nonnull align 8 dereferenceable(241) %3, ptr noundef %4, i1 noundef zeroext true)
  store ptr getelementptr inbounds nuw inrange(-16, 32) (i8, ptr @_ZTVN4cvc58internal24ElimWitnessNodeConverterE, i64 16), ptr %0, align 8, !tbaa !3
  store ptr getelementptr inbounds nuw inrange(-16, 64) (i8, ptr @_ZTVN4cvc58internal24ElimWitnessNodeConverterE, i64 64), ptr %3, align 8, !tbaa !3
  %5 = getelementptr inbounds nuw i8, ptr %0, i64 264
  tail call void @llvm.memset.p0.i64(ptr noundef nonnull align 8 dereferenceable(24) %5, i8 0, i64 24, i1 false)
  ret void
}